target datalayout = "e-m:e-p270:32:32-p271:32:32-p272:64:64-i64:64-i128:128-f80:128-n8:16:32:64-S128"
target triple = "x86_64-pc-linux-gnu"

%struct.LexState = type { ptr, ptr, %union.TValue, %union.TValue, ptr, ptr, i32, i32, i32, %struct.SBuf, ptr, ptr, i32, i32, ptr, ptr, ptr, ptr, i32, i32, ptr, i32, i32, i32, i32 }
%union.TValue = type { i64 }
%struct.SBuf = type { ptr, ptr, ptr, %struct.MRef }
%struct.MRef = type { i64 }
%struct.__va_list_tag = type { i32, i32, ptr, ptr }

@lj_char_bits = external hidden constant [257 x i8], align 16
@.str.1 = private unnamed_addr constant [3 x i8] c"%c\00", align 1
@.str.2 = private unnamed_addr constant [9 x i8] c"char(%d)\00", align 1

; Function Attrs: alwaysinline nounwind uwtable
define internal ptr @lj_buf_more(ptr noundef %0, i32 noundef %1) #2 {
  %3 = alloca ptr, align 8
  %4 = alloca ptr, align 8
  %5 = alloca i32, align 4
  store ptr %0, ptr %4, align 8, !tbaa !63
  store i32 %1, ptr %5, align 4, !tbaa !11
  %6 = load i32, ptr %5, align 4, !tbaa !11
  %7 = load ptr, ptr %4, align 8, !tbaa !63
  %8 = getelementptr inbounds nuw %struct.SBuf, ptr %7, i32 0, i32 1
  %9 = load ptr, ptr %8, align 8, !tbaa !66
  %10 = load ptr, ptr %4, align 8, !tbaa !63
  %11 = getelementptr inbounds nuw %struct.SBuf, ptr %10, i32 0, i32 0
  %12 = load ptr, ptr %11, align 8, !tbaa !81
  %13 = ptrtoint ptr %9 to i64
  %14 = ptrtoint ptr %12 to i64
  %15 = sub i64 %13, %14
  %16 = trunc i64 %15 to i32
  %17 = icmp ugt i32 %6, %16
  %18 = xor i1 %17, true
  %19 = xor i1 %18, true
  %20 = zext i1 %19 to i32
  %21 = sext i32 %20 to i64
  %22 = call i64 @llvm.expect.i64(i64 %21, i64 0)
  %23 = icmp ne i64 %22, 0
  br i1 %23, label %24, label %28

24:                                               ; preds = %2
  %25 = load ptr, ptr %4, align 8, !tbaa !63
  %26 = load i32, ptr %5, align 4, !tbaa !11
  %27 = call ptr @lj_buf_more2(ptr noundef %25, i32 noundef %26)
  store ptr %27, ptr %3, align 8
  br label %32

28:                                               ; preds = %2
  %29 = load ptr, ptr %4, align 8, !tbaa !63
  %30 = getelementptr inbounds nuw %struct.SBuf, ptr %29, i32 0, i32 0
  %31 = load ptr, ptr %30, align 8, !tbaa !81
  store ptr %31, ptr %3, align 8
  br label %32

32:                                               ; preds = %28, %24
  %33 = load ptr, ptr %3, align 8
  ret ptr %33
}

; Function Attrs: alwaysinline nounwind uwtable
define internal void @lj_buf_putb(ptr noundef %0, i32 noundef %1) #2 {
  %3 = alloca ptr, align 8
  %4 = alloca i32, align 4
  %5 = alloca ptr, align 8
  store ptr %0, ptr %3, align 8, !tbaa !63
  store i32 %1, ptr %4, align 4, !tbaa !11
  call void @llvm.lifetime.start.p0(i64 8, ptr %5) #11
  %6 = load ptr, ptr %3, align 8, !tbaa !63
  %7 = call ptr @lj_buf_more(ptr noundef %6, i32 noundef 1)
  store ptr %7, ptr %5, align 8, !tbaa !73
  %8 = load i32, ptr %4, align 4, !tbaa !11
  %9 = trunc i32 %8 to i8
  %10 = load ptr, ptr %5, align 8, !tbaa !73
  %11 = getelementptr inbounds nuw i8, ptr %10, i32 1
  store ptr %11, ptr %5, align 8, !tbaa !73
  store i8 %9, ptr %10, align 1, !tbaa !38
  %12 = load ptr, ptr %5, align 8, !tbaa !73
  %13 = load ptr, ptr %3, align 8, !tbaa !63
  %14 = getelementptr inbounds nuw %struct.SBuf, ptr %13, i32 0, i32 0
  store ptr %12, ptr %14, align 8, !tbaa !81
  call void @llvm.lifetime.end.p0(i64 8, ptr %5) #11
  ret void
}

; Function Attrs: nounwind uwtable
define hidden ptr @lj_lex_token2str(ptr noundef %0, i32 noundef %1) #0 {
  %3 = alloca ptr, align 8
  %4 = alloca ptr, align 8
  %5 = alloca i32, align 4
  store ptr %0, ptr %4, align 8, !tbaa !9
  store i32 %1, ptr %5, align 4, !tbaa !11
  %6 = load i32, ptr %5, align 4, !tbaa !11
  %7 = icmp sgt i32 %6, 256
  br i1 %7, label %8, label %15

8:                                                ; preds = %2
  %9 = load i32, ptr %5, align 4, !tbaa !11
  %10 = sub nsw i32 %9, 256
  %11 = sub nsw i32 %10, 1
  %12 = sext i32 %11 to i64
  %13 = getelementptr inbounds [34 x ptr], ptr @tokennames, i64 0, i64 %12
  %14 = load ptr, ptr %13, align 8, !tbaa !73
  store ptr %14, ptr %3, align 8
  br label %35

15:                                               ; preds = %2
  %16 = load i32, ptr %5, align 4, !tbaa !11
  %17 = sext i32 %16 to i64
  %18 = getelementptr inbounds i8, ptr getelementptr inbounds (i8, ptr @lj_char_bits, i64 1), i64 %17
  %19 = load i8, ptr %18, align 1, !tbaa !38
  %20 = zext i8 %19 to i32
  %21 = and i32 %20, 1
  %22 = icmp ne i32 %21, 0
  br i1 %22, label %29, label %23

23:                                               ; preds = %15
  %24 = load ptr, ptr %4, align 8, !tbaa !9
  %25 = getelementptr inbounds nuw %struct.LexState, ptr %24, i32 0, i32 1
  %26 = load ptr, ptr %25, align 8, !tbaa !13
  %27 = load i32, ptr %5, align 4, !tbaa !11
  %28 = call ptr (ptr, ptr, ...) @lj_strfmt_pushf(ptr noundef %26, ptr noundef @.str.1, i32 noundef %27)
  store ptr %28, ptr %3, align 8
  br label %35

29:                                               ; preds = %15
  %30 = load ptr, ptr %4, align 8, !tbaa !9
  %31 = getelementptr inbounds nuw %struct.LexState, ptr %30, i32 0, i32 1
  %32 = load ptr, ptr %31, align 8, !tbaa !13
  %33 = load i32, ptr %5, align 4, !tbaa !11
  %34 = call ptr (ptr, ptr, ...) @lj_strfmt_pushf(ptr noundef %32, ptr noundef @.str.2, i32 noundef %33)
  store ptr %34, ptr %3, align 8
  br label %35

35:                                               ; preds = %29, %23, %8
  %36 = load ptr, ptr %3, align 8
  ret ptr %36
}

; Function Attrs: alwaysinline nounwind uwtable
define internal void @lex_save(ptr noundef %0, i32 noundef %1) #2 {
  %3 = alloca ptr, align 8
  %4 = alloca i32, align 4
  store ptr %0, ptr %3, align 8, !tbaa !9
  store i32 %1, ptr %4, align 4, !tbaa !11
  %5 = load ptr, ptr %3, align 8, !tbaa !9
  %6 = getelementptr inbounds nuw %struct.LexState, ptr %5, i32 0, i32 9
  %7 = load i32, ptr %4, align 4, !tbaa !11
  call void @lj_buf_putb(ptr noundef %6, i32 noundef %7)
  ret void
}

; Function Attrs: noreturn nounwind uwtable
define hidden void @lj_lex_error(ptr noundef %0, i32 noundef %1, i32 noundef %2, ...) #7 {
  %4 = alloca ptr, align 8
  %5 = alloca i32, align 4
  %6 = alloca i32, align 4
  %7 = alloca ptr, align 8
  %8 = alloca [1 x %struct.__va_list_tag], align 16
  store ptr %0, ptr %4, align 8, !tbaa !9
  store i32 %1, ptr %5, align 4, !tbaa !11
  store i32 %2, ptr %6, align 4, !tbaa !11
  call void @llvm.lifetime.start.p0(i64 8, ptr %7) #11
  call void @llvm.lifetime.start.p0(i64 24, ptr %8) #11
  %9 = load i32, ptr %5, align 4, !tbaa !11
  %10 = icmp eq i32 %9, 0
  br i1 %10, label %11, label %12

11:                                               ; preds = %3
  store ptr null, ptr %7, align 8, !tbaa !73
  br label %32

12:                                               ; preds = %3
  %13 = load i32, ptr %5, align 4, !tbaa !11
  %14 = icmp eq i32 %13, 287
  br i1 %14, label %21, label %15

15:                                               ; preds = %12
  %16 = load i32, ptr %5, align 4, !tbaa !11
  %17 = icmp eq i32 %16, 288
  br i1 %17, label %21, label %18

18:                                               ; preds = %15
  %19 = load i32, ptr %5, align 4, !tbaa !11
  %20 = icmp eq i32 %19, 286
  br i1 %20, label %21, label %27

21:                                               ; preds = %18, %15, %12
  %22 = load ptr, ptr %4, align 8, !tbaa !9
  call void @lex_save(ptr noundef %22, i32 noundef 0)
  %23 = load ptr, ptr %4, align 8, !tbaa !9
  %24 = getelementptr inbounds nuw %struct.LexState, ptr %23, i32 0, i32 9
  %25 = getelementptr inbounds nuw %struct.SBuf, ptr %24, i32 0, i32 2
  %26 = load ptr, ptr %25, align 8, !tbaa !69
  store ptr %26, ptr %7, align 8, !tbaa !73
  br label %31

27:                                               ; preds = %18
  %28 = load ptr, ptr %4, align 8, !tbaa !9
  %29 = load i32, ptr %5, align 4, !tbaa !11
  %30 = call ptr @lj_lex_token2str(ptr noundef %28, i32 noundef %29)
  store ptr %30, ptr %7, align 8, !tbaa !73
  br label %31

31:                                               ; preds = %27, %21
  br label %32

32:                                               ; preds = %31, %11
  %33 = getelementptr inbounds [1 x %struct.__va_list_tag], ptr %8, i64 0, i64 0
  call void @llvm.va_start.p0(ptr %33)
  %34 = load ptr, ptr %4, align 8, !tbaa !9
  %35 = getelementptr inbounds nuw %struct.LexState, ptr %34, i32 0, i32 1
  %36 = load ptr, ptr %35, align 8, !tbaa !13
  %37 = load ptr, ptr %4, align 8, !tbaa !9
  %38 = getelementptr inbounds nuw %struct.LexState, ptr %37, i32 0, i32 14
  %39 = load ptr, ptr %38, align 8, !tbaa !74
  %40 = load ptr, ptr %7, align 8, !tbaa !73
  %41 = load ptr, ptr %4, align 8, !tbaa !9
  %42 = getelementptr inbounds nuw %struct.LexState, ptr %41, i32 0, i32 12
  %43 = load i32, ptr %42, align 8, !tbaa !33
  %44 = load i32, ptr %6, align 4, !tbaa !11
  %45 = getelementptr inbounds [1 x %struct.__va_list_tag], ptr %8, i64 0, i64 0
  call void @lj_err_lex(ptr noundef %36, ptr noundef %39, ptr noundef %40, i32 noundef %43, i32 noundef %44, ptr noundef %45) #12
  unreachable
}