; Function Attrs: noreturn nounwind uwtable
define hidden void @lj_lex_error(ptr noundef %0, i32 noundef %1, i32 noundef %2, ...) local_unnamed_addr #4 {
  %4 = alloca [1 x %struct.__va_list_tag], align 16
  call void @llvm.lifetime.start.p0(i64 24, ptr nonnull %4) #11
  %5 = icmp eq i32 %1, 0
  br i1 %5, label %lj_lex_token2str.exit, label %6

6:                                                ; preds = %3
  %7 = add i32 %1, -286
  %or.cond3 = icmp ult i32 %7, 3
  br i1 %or.cond3, label %8, label %23

8:                                                ; preds = %6
  %9 = getelementptr inbounds nuw i8, ptr %0, i64 64
  %10 = getelementptr inbounds nuw i8, ptr %0, i64 72
  %11 = load ptr, ptr %10, align 8, !tbaa !51
  %12 = load ptr, ptr %9, align 8, !tbaa !53
  %13 = ptrtoint ptr %11 to i64
  %14 = ptrtoint ptr %12 to i64
  %15 = sub i64 %13, %14
  %16 = and i64 %15, 4294967295
  %17 = icmp eq i64 %16, 0
  br i1 %17, label %18, label %lj_buf_more.exit, !prof !54

18:                                               ; preds = %8
  %19 = tail call ptr @lj_buf_more2(ptr noundef nonnull %9, i32 noundef 1) #11
  br label %lj_buf_more.exit

lj_buf_more.exit:                                 ; preds = %8, %18
  %.0.i = phi ptr [ %19, %18 ], [ %12, %8 ]
  %20 = getelementptr inbounds nuw i8, ptr %.0.i, i64 1
  store i8 0, ptr %.0.i, align 1, !tbaa !29
  store ptr %20, ptr %9, align 8, !tbaa !53
  %21 = getelementptr inbounds nuw i8, ptr %0, i64 80
  %22 = load ptr, ptr %21, align 8, !tbaa !57
  br label %lj_lex_token2str.exit

23:                                               ; preds = %6
  %24 = icmp sgt i32 %1, 256
  br i1 %24, label %25, label %30

25:                                               ; preds = %23
  %26 = add nsw i32 %1, -257
  %27 = zext nneg i32 %26 to i64
  %28 = getelementptr inbounds nuw [34 x ptr], ptr @tokennames, i64 0, i64 %27
  %29 = load ptr, ptr %28, align 8, !tbaa !65
  br label %lj_lex_token2str.exit

30:                                               ; preds = %23
  %31 = sext i32 %1 to i64
  %32 = getelementptr inbounds i8, ptr getelementptr inbounds nuw (i8, ptr @lj_char_bits, i64 1), i64 %31
  %33 = load i8, ptr %32, align 1, !tbaa !29
  %34 = and i8 %33, 1
  %.not.i = icmp eq i8 %34, 0
  %35 = getelementptr inbounds nuw i8, ptr %0, i64 8
  %36 = load ptr, ptr %35, align 8, !tbaa !4
  br i1 %.not.i, label %37, label %39

37:                                               ; preds = %30
  %38 = tail call ptr (ptr, ptr, ...) @lj_strfmt_pushf(ptr noundef %36, ptr noundef nonnull @.str.1, i32 noundef %1) #11
  br label %lj_lex_token2str.exit

39:                                               ; preds = %30
  %40 = tail call ptr (ptr, ptr, ...) @lj_strfmt_pushf(ptr noundef %36, ptr noundef nonnull @.str.2, i32 noundef %1) #11
  br label %lj_lex_token2str.exit

lj_lex_token2str.exit:                            ; preds = %39, %37, %25, %3, %lj_buf_more.exit
  %.0 = phi ptr [ %22, %lj_buf_more.exit ], [ null, %3 ], [ %29, %25 ], [ %40, %39 ], [ %38, %37 ]
  call void @llvm.va_start.p0(ptr nonnull %4)
  %41 = getelementptr inbounds nuw i8, ptr %0, i64 8
  %42 = load ptr, ptr %41, align 8, !tbaa !4
  %43 = getelementptr inbounds nuw i8, ptr %0, i64 120
  %44 = load ptr, ptr %43, align 8, !tbaa !66
  %45 = getelementptr inbounds nuw i8, ptr %0, i64 112
  %46 = load i32, ptr %45, align 8, !tbaa !22
  call void @lj_err_lex(ptr noundef %42, ptr noundef %44, ptr noundef %.0, i32 noundef %46, i32 noundef %2, ptr noundef nonnull %4) #12
  unreachable
}